Certificate:
    Data:
        Version: 3 (0x2)
        Serial Number: 8213 (0x2015)
    Signature Algorithm: sha256WithRSAEncryption
        Issuer: C=CN, ST=Beijing, L=Beijing, O=Easted, OU=R&D, CN=eastedweb/emailAddress=gaoshan@easted.com.cn
        Validity
            Not Before: Jul 29 03:57:02 2015 GMT
            Not After : Jul 28 03:57:02 2016 GMT
        Subject: C=CN, ST=Beijing, O=Easted, OU=R&D, CN=eastedweb/emailAddress=gaoshan@easted.com.cn
        Subject Public Key Info:
            Public Key Algorithm: rsaEncryption
                Public-Key: (1024 bit)
                Modulus:
                    00:cf:88:9f:fa:3b:de:61:e5:ab:21:97:f0:09:36:
                    bd:7f:87:0b:a0:70:d8:e5:c4:d1:56:6f:29:45:3d:
                    f3:67:c6:e2:f8:62:f3:a6:78:46:22:ba:d2:e6:46:
                    d2:aa:ca:71:d2:56:af:ab:e3:e4:2e:b2:8b:72:7b:
                    98:80:9e:1d:6d:1b:24:92:13:3b:fd:a1:60:7d:5a:
                    31:40:bc:96:78:df:07:fd:1f:89:f6:fa:a7:41:b4:
                    ea:78:aa:ef:26:eb:e5:2a:36:e4:7f:a6:25:9f:31:
                    41:6f:da:e1:3b:82:da:f9:8a:46:2c:be:45:b7:1a:
                    08:55:f8:30:c3:e6:7f:fa:7d
                Exponent: 65537 (0x10001)
        X509v3 extensions:
            X509v3 Basic Constraints: 
                CA:FALSE
            Netscape Comment: 
                OpenSSL Generated Certificate
            X509v3 Subject Key Identifier: 
                6A:AD:AE:A2:C3:00:45:0B:FE:DC:17:01:5A:E3:F3:0B:7B:1A:63:3A
            X509v3 Authority Key Identifier: 
                keyid:9D:E6:7D:86:0C:BC:1A:05:25:2D:56:FF:EA:00:76:D4:B4:F3:B3:8F

    Signature Algorithm: sha256WithRSAEncryption
         0f:c6:67:2c:02:30:2a:90:c2:ee:5b:77:a1:4f:36:19:6e:d9:
         9d:54:d7:09:05:6d:79:56:53:2f:80:da:b6:c9:4f:f2:8a:bd:
         b5:79:84:83:f3:6b:a7:fb:6c:5c:95:77:04:f6:4c:f6:d7:8f:
         9e:71:3e:05:7a:d9:ab:c1:c1:3a:09:ec:46:c6:0c:59:37:15:
         a8:fb:a3:9c:2a:9d:92:b3:69:e6:c7:f7:d1:22:66:0e:4b:77:
         a6:c7:3a:82:bc:5e:70:30:c5:83:c3:f4:f6:2e:87:79:40:21:
         c7:ff:08:3f:53:13:d8:c5:e8:c3:a3:b5:00:67:cb:9a:22:9a:
         48:7c:64:64:b8:19:e2:a6:27:5d:fb:ae:b3:29:20:85:d8:43:
         73:17:cb:62:43:1e:21:08:0c:3e:58:28:3d:82:b9:cc:ec:ec:
         98:18:3e:61:83:ad:cb:bb:7c:e2:cd:92:31:5d:a4:e4:e5:17:
         be:b3:f7:72:76:29:55:a5:28:24:cd:c2:6e:fe:9f:a5:2c:62:
         1b:35:01:83:33:8c:f5:0f:ab:d4:bc:bb:ec:b6:3f:0a:a7:d5:
         c9:1a:42:23:1d:c9:db:ed:91:a2:e7:a0:3e:47:17:f4:5b:63:
         c9:d6:2b:8f:a6:ff:0c:0a:1b:ea:63:94:8a:6c:9f:6e:eb:7e:
         57:65:bc:fe
-----BEGIN CERTIFICATE-----
MIIDdjCCAl6gAwIBAgICIBUwDQYJKoZIhvcNAQELBQAwgYoxCzAJBgNVBAYTAkNO
MRAwDgYDVQQIDAdCZWlqaW5nMRAwDgYDVQQHDAdCZWlqaW5nMQ8wDQYDVQQKDAZF
YXN0ZWQxDDAKBgNVBAsMA1ImRDESMBAGA1UEAwwJZWFzdGVkd2ViMSQwIgYJKoZI
hvcNAQkBFhVnYW9zaGFuQGVhc3RlZC5jb20uY24wHhcNMTUwNzI5MDM1NzAyWhcN
MTYwNzI4MDM1NzAyWjB4MQswCQYDVQQGEwJDTjEQMA4GA1UECAwHQmVpamluZzEP
MA0GA1UECgwGRWFzdGVkMQwwCgYDVQQLDANSJkQxEjAQBgNVBAMMCWVhc3RlZHdl
YjEkMCIGCSqGSIb3DQEJARYVZ2Fvc2hhbkBlYXN0ZWQuY29tLmNuMIGfMA0GCSqG
SIb3DQEBAQUAA4GNADCBiQKBgQDPiJ/6O95h5ashl/AJNr1/hwugcNjlxNFWbylF
PfNnxuL4YvOmeEYiutLmRtKqynHSVq+r4+Qusotye5iAnh1tGySSEzv9oWB9WjFA
vJZ43wf9H4n2+qdBtOp4qu8m6+UqNuR/piWfMUFv2uE7gtr5ikYsvkW3GghV+DDD
5n/6fQIDAQABo3sweTAJBgNVHRMEAjAAMCwGCWCGSAGG+EIBDQQfFh1PcGVuU1NM
IEdlbmVyYXRlZCBDZXJ0aWZpY2F0ZTAdBgNVHQ4EFgQUaq2uosMARQv+3BcBWuPz
C3saYzowHwYDVR0jBBgwFoAUneZ9hgy8GgUlLVb/6gB21LTzs48wDQYJKoZIhvcN
AQELBQADggEBAA/GZywCMCqQwu5bd6FPNhlu2Z1U1wkFbXlWUy+A2rbJT/KKvbV5
hIPza6f7bFyVdwT2TPbXj55xPgV62avBwToJ7EbGDFk3Faj7o5wqnZKzaebH99Ei
Zg5Ld6bHOoK8XnAwxYPD9PYuh3lAIcf/CD9TE9jF6MOjtQBny5oimkh8ZGS4GeKm
J137rrMpIIXYQ3MXy2JDHiEIDD5YKD2Cuczs7JgYPmGDrcu7fOLNkjFdpOTlF76z
93J2KVWlKCTNwm7+n6UsYhs1AYMzjPUPq9S8u+y2Pwqn1ckaQiMdydvtkaLnoD5H
F/RbY8nWK4+m/wwKG+pjlIpsn27rfldlvP4=
-----END CERTIFICATE-----
